(lp1
V00
p2
aV000
p3
aV01
p4
aV02
p5
aV03
p6
aV04
p7
aV05
p8
aV06
p9
aV07
p10
aV08
p11
aV09
p12
aV0px
p13
aV10
p14
aV100
p15
aV11
p16
aV12
p17
aV13
p18
aV14
p19
aV15
p20
aV16
p21
aV17
p22
aV18
p23
aV19
p24
aV20
p25
aV200
p26
aV2000
p27
aV2004
p28
aV2005
p29
aV2006
p30
aV2007
p31
aV2008
p32
aV2009
p33
aV2010
p34
aV2011
p35
aV2012
p36
aV2013
p37
aV21
p38
aV22
p39
aV23
p40
aV24
p41
aV25
p42
aV26
p43
aV27
p44
aV28
p45
aV29
p46
aV30
p47
aV300
p48
aV31
p49
aV32
p50
aV33
p51
aV34
p52
aV35
p53
aV350
p54
aV36
p55
aV37
p56
aV375
p57
aV38
p58
aV39
p59
aV3d
p60
aV40
p61
aV400
p62
aV42
p63
aV43
p64
aV44
p65
aV45
p66
aV46
p67
aV48
p68
aV4th
p69
aV50
p70
aV500
p71
aV55
p72
aV60
p73
aV70
p74
aV75
p75
aV80
p76
aV8217
p77
aV90
p78
aV95
p79
aV99
p80
aVability
p81
aVable
p82
aVabs
p83
aVabsolutely
p84
aVaccess
p85
aVaccessories
p86
aVaccording
p87
aVaccount
p88
aVachieve
p89
aVacid
p90
aVacids
p91
aVacne
p92
aVact
p93
aVaction
p94
aVactive
p95
aVactivities
p96
aVactivity
p97
aVactual
p98
aVactually
p99
aVad
p100
aVadapted
p101
aVadd
p102
aVadded
p103
aVadding
p104
aVaddition
p105
aVadditional
p106
aVaddress
p107
aVadds
p108
aVadjust
p109
aVads
p110
aVadult
p111
aVadults
p112
aVadvanced
p113
aVadvice
p114
aVafternoon
p115
aVage
p116
aVago
p117
aVagree
p118
aVahead
p119
aVaid
p120
aVair
p121
aVairtight
p122
aVal
p123
aValcohol
p124
aValex
p125
aVallow
p126
aVallowed
p127
aVallowing
p128
aVallows
p129
aVallrecipes
p130
aValmond
p131
aValmonds
p132
aValternative
p133
aVamazing
p134
aVamazon
p135
aVamerica
p136
aVamerican
p137
aVamericans
p138
aVamounts
p139
aVanalysis
p140
aVanderson
p141
aVandroid
p142
aVangeles
p143
aVanimal
p144
aVanimals
p145
aVannounced
p146
aVanswer
p147
aVanti
p148
aVanxiety
p149
aVapart
p150
aVapp
p151
aVapparently
p152
aVappear
p153
aVappearance
p154
aVappears
p155
aVappend
p156
aVappetizer
p157
aVapple
p158
aVapples
p159
aVapply
p160
aVapproach
p161
aVapproved
p162
aVapproximately
p163
aVapps
p164
aVapril
p165
aVarea
p166
aVareas
p167
aVaren
p168
aVarm
p169
aVarms
p170
aVarmy
p171
aVart
p172
aVarticle
p173
aVarticles
p174
aVarts
p175
aVasian
p176
aVaside
p177
aVask
p178
aVasked
p179
aVasparagus
p180
aVassociated
p181
aVassociation
p182
aVate
p183
aVathlete
p184
aVathletes
p185
aVattachment
p186
aVattack
p187
aVattempt
p188
aVattention
p189
aVaugust
p190
aVaustralia
p191
aVauthor
p192
aVavailable
p193
aVaverage
p194
aVavocado
p195
aVavoid
p196
aVaward
p197
aVaway
p198
aVawesome
p199
aVbaby
p200
aVbackground
p201
aVbacon
p202
aVbacteria
p203
aVbad
p204
aVbag
p205
aVbags
p206
aVbake
p207
aVbaked
p208
aVbaker
p209
aVbaking
p210
aVbalance
p211
aVball
p212
aVballs
p213
aVbalsamic
p214
aVbanana
p215
aVbananas
p216
aVbar
p217
aVbarbecue
p218
aVbars
p219
aVbase
p220
aVbaseball
p221
aVbased
p222
aVbasic
p223
aVbasically
p224
aVbasil
p225
aVbasis
p226
aVbasketball
p227
aVbatch
p228
aVbath
p229
aVbatter
p230
aVbattery
p231
aVbay
p232
aVbbc
p233
aVbbq
p234
aVbeach
p235
aVbean
p236
aVbeans
p237
aVbear
p238
aVbeat
p239
aVbeaten
p240
aVbeating
p241
aVbeautiful
p242
aVbeauty
p243
aVbed
p244
aVbeef
p245
aVbeer
p246
aVbegan
p247
aVbegin
p248
aVbeginning
p249
aVbegins
p250
aVbehavior
p251
aVbelieve
p252
aVbell
p253
aVbenefit
p254
aVbenefits
p255
aVberries
p256
aVberry
p257
aVbest
p258
aVbetter
p259
aVbig
p260
aVbigger
p261
aVbiggest
p262
aVbillion
p263
aVbird
p264
aVbirth
p265
aVbirthday
p266
aVbiscuits
p267
aVbit
p268
aVbite
p269
aVbites
p270
aVbits
p271
aVblack
p272
aVblend
p273
aVblended
p274
aVblender
p275
aVblock
p276
aVblog
p277
aVblogs
p278
aVblood
p279
aVblue
p280
aVblueberries
p281
aVblueberry
p282
aVboard
p283
aVbodies
p284
aVbody
p285
aVboil
p286
aVboiled
p287
aVboiling
p288
aVbone
p289
aVbook
p290
aVbooks
p291
aVboost
p292
aVboots
p293
aVborder
p294
aVborn
p295
aVboston
p296
aVbottle
p297
aVbought
p298
aVbowl
p299
aVbox
p300
aVboy
p301
aVboys
p302
aVbrain
p303
aVbrand
p304
aVbread
p305
aVbreak
p306
aVbreakfast
p307
aVbreaking
p308
aVbreast
p309
aVbreasts
p310
aVbreath
p311
aVbreathing
p312
aVbright
p313
aVbring
p314
aVbrings
p315
aVbritish
p316
aVbroccoli
p317
aVbroken
p318
aVbrooklyn
p319
aVbroth
p320
aVbrought
p321
aVbrown
p322
aVbrowned
p323
aVbrownie
p324
aVbrownies
p325
aVbrowse
p326
aVbrunch
p327
aVbrush
p328
aVbudget
p329
aVbuffalo
p330
aVbuild
p331
aVbuilding
p332
aVbuilt
p333
aVbunch
p334
aVbuns
p335
aVburger
p336
aVburgers
p337
aVburn
p338
aVburning
p339
aVbusiness
p340
aVbusy
p341
aVbutter
p342
aVbuttercream
p343
aVbuttermilk
p344
aVbutton
p345
aVbuy
p346
aVbuying
p347
aVbuzz
p348
aVbuzzfeed
p349
aVca
p350
aVcabbage
p351
aVcaffeine
p352
aVcake
p353
aVcakes
p354
aVcalcium
p355
aVcalifornia
p356
aVcalled
p357
aVcalls
p358
aVcalorie
p359
aVcalories
p360
aVcame
p361
aVcamera
p362
aVcampaign
p363
aVcanada
p364
aVcancer
p365
aVcandy
p366
aVcanned
p367
aVcar
p368
aVcaramel
p369
aVcaramelized
p370
aVcarbon
p371
aVcarbs
p372
aVcard
p373
aVcardio
p374
aVcards
p375
aVcare
p376
aVcareer
p377
aVcareful
p378
aVcarefully
p379
aVcarrot
p380
aVcarrots
p381
aVcarry
p382
aVcars
p383
aVcase
p384
aVcases
p385
aVcasserole
p386
aVcast
p387
aVcat
p388
aVcatch
p389
aVcategory
p390
aVcaught
p391
aVcause
p392
aVcaused
p393
aVcauses
p394
aVcayenne
p395
aVcbssports
p396
aVcelebrate
p397
aVcelebrity
p398
aVcelery
p399
aVcell
p400
aVcells
p401
aVcenter
p402
aVcentral
p403
aVcentury
p404
aVcereal
p405
aVcertain
p406
aVcertainly
p407
aVchallenge
p408
aVchance
p409
aVchances
p410
aVchange
p411
aVchanged
p412
aVchanges
p413
aVchanging
p414
aVchannel
p415
aVcheap
p416
aVcheck
p417
aVcheddar
p418
aVcheese
p419
aVcheesecake
p420
aVchef
p421
aVchefs
p422
aVchemical
p423
aVchemicals
p424
aVcherry
p425
aVchewy
p426
aVchic
p427
aVchicago
p428
aVchicken
p429
aVchild
p430
aVchildren
p431
aVchili
p432
aVchill
p433
aVchilled
p434
aVchina
p435
aVchinese
p436
aVchip
p437
aVchips
p438
aVchocolate
p439
aVchoice
p440
aVchoices
p441
aVcholesterol
p442
aVchoose
p443
aVchop
p444
aVchopped
p445
aVchris
p446
aVchristmas
p447
aVchronic
p448
aVchunks
p449
aVcider
p450
aVcilantro
p451
aVcinnamon
p452
aVcircle
p453
aVcitrus
p454
aVcity
p455
aVclaim
p456
aVclaims
p457
aVclass
p458
aVclassic
p459
aVclean
p460
aVcleaning
p461
aVclear
p462
aVclearly
p463
aVclick
p464
aVclinical
p465
aVclock
p466
aVclose
p467
aVclothes
p468
aVclothing
p469
aVcloves
p470
aVclub
p471
aVcoach
p472
aVcoat
p473
aVcoated
p474
aVcoating
p475
aVcocktail
p476
aVcocoa
p477
aVcoconut
p478
aVcode
p479
aVcoffee
p480
aVcoke
p481
aVcold
p482
aVcollection
p483
aVcollege
p484
aVcolor
p485
aVcolored
p486
aVcolors
p487
aVcom
p488
aVcombination
p489
aVcombine
p490
aVcombined
p491
aVcome
p492
aVcomes
p493
aVcomfort
p494
aVcomfortable
p495
aVcoming
p496
aVcomment
p497
aVcomments
p498
aVcommercial
p499
aVcommon
p500
aVcommunity
p501
aVcompanies
p502
aVcompany
p503
aVcompared
p504
aVcompetition
p505
aVcomplete
p506
aVcompletely
p507
aVcomplex
p508
aVcomputer
p509
aVcomputers
p510
aVconcept
p511
aVcondition
p512
aVconditions
p513
aVconsider
p514
aVconsidered
p515
aVconsistency
p516
aVconstantly
p517
aVconsume
p518
aVconsumer
p519
aVconsumers
p520
aVconsumption
p521
aVcontact
p522
aVcontain
p523
aVcontainer
p524
aVcontains
p525
aVcontent
p526
aVcontinue
p527
aVcontract
p528
aVcontrol
p529
aVcook
p530
aVcookbook
p531
aVcooked
p532
aVcooker
p533
aVcookie
p534
aVcookies
p535
aVcooking
p536
aVcooks
p537
aVcool
p538
aVcooled
p539
aVcooling
p540
aVcopy
p541
aVcopyright
p542
aVcore
p543
aVcorn
p544
aVcorner
p545
aVcornstarch
p546
aVcost
p547
aVcosts
p548
aVcouldn
p549
aVcount
p550
aVcounter
p551
aVcountries
p552
aVcountry
p553
aVcounty
p554
aVcouple
p555
aVcourse
p556
aVcourt
p557
aVcourtesy
p558
aVcover
p559
aVcovered
p560
aVcrack
p561
aVcracked
p562
aVcracker
p563
aVcrackers
p564
aVcranberry
p565
aVcrazy
p566
aVcream
p567
aVcreamy
p568
aVcreate
p569
aVcreated
p570
aVcreating
p571
aVcreative
p572
aVcredit
p573
aVcrisp
p574
aVcrispy
p575
aVcross
p576
aVcrowd
p577
aVcrumb
p578
aVcrumbs
p579
aVcrunch
p580
aVcrunchy
p581
aVcrushed
p582
aVcrust
p583
aVcubes
p584
aVcuisine
p585
aVculinary
p586
aVculture
p587
aVcup
p588
aVcupcake
p589
aVcupcakes
p590
aVcups
p591
aVcure
p592
aVcures
p593
aVcurrent
p594
aVcurrently
p595
aVcurry
p596
aVcustard
p597
aVcustomers
p598
aVcut
p599
aVcute
p600
aVcuts
p601
aVcutting
p602
aVdad
p603
aVdaily
p604
aVdairy
p605
aVdamage
p606
aVdamascus
p607
aVdance
p608
aVdangerous
p609
aVdark
p610
aVdata
p611
aVdate
p612
aVdaughter
p613
aVdavid
p614
aVday
p615
aVdays
p616
aVdead
p617
aVdeal
p618
aVdeath
p619
aVdecember
p620
aVdecide
p621
aVdecided
p622
aVdecision
p623
aVdecoration
p624
aVdeep
p625
aVdefinitely
p626
aVdegree
p627
aVdegrees
p628
aVdelicious
p629
aVdepartment
p630
aVdepending
p631
aVdepression
p632
aVdesign
p633
aVdesigned
p634
aVdesigner
p635
aVdesigners
p636
aVdesigns
p637
aVdesired
p638
aVdespite
p639
aVdessert
p640
aVdesserts
p641
aVdetails
p642
aVdevelop
p643
aVdeveloped
p644
aVdeveloping
p645
aVdevelopment
p646
aVdevice
p647
aVdevices
p648
aVdiabetes
p649
aVdiced
p650
aVdid
p651
aVdidn
p652
aVdie
p653
aVdiet
p654
aVdietary
p655
aVdiets
p656
aVdifference
p657
aVdifferent
p658
aVdifficult
p659
aVdigestive
p660
aVdigital
p661
aVdinner
p662
aVdip
p663
aVdipped
p664
aVdipping
p665
aVdirections
p666
aVdirectly
p667
aVdirector
p668
aVdiscover
p669
aVdiscovered
p670
aVdisease
p671
aVdiseases
p672
aVdish
p673
aVdishes
p674
aVdisorder
p675
aVdisorders
p676
aVdisplay
p677
aVdiv
p678
aVdivide
p679
aVdiy
p680
aVdoctor
p681
aVdoctors
p682
aVdocument
p683
aVdoes
p684
aVdoesn
p685
aVdog
p686
aVdogs
p687
aVdoing
p688
aVdollars
p689
aVdon
p690
aVdoor
p691
aVdouble
p692
aVdough
p693
aVdownload
p694
aVdozen
p695
aVdr
p696
aVdrain
p697
aVdream
p698
aVdreams
p699
aVdress
p700
aVdresses
p701
aVdressing
p702
aVdried
p703
aVdrink
p704
aVdrinking
p705
aVdrinks
p706
aVdrive
p707
aVdriving
p708
aVdrizzle
p709
aVdrop
p710
aVdrops
p711
aVdrug
p712
aVdrugs
p713
aVdry
p714
aVdust
p715
aVearlier
p716
aVearly
p717
aVearth
p718
aVease
p719
aVeasier
p720
aVeasily
p721
aVeast
p722
aVeasy
p723
aVeat
p724
aVeaten
p725
aVeating
p726
aVeats
p727
aVedge
p728
aVedges
p729
aVedition
p730
aVeditor
p731
aVeducation
p732
aVeffect
p733
aVeffective
p734
aVeffects
p735
aVeffort
p736
aVegg
p737
aVeggs
p738
aVel
p739
aVelectric
p740
aVem
p741
aVemail
p742
aVemotional
p743
aVen
p744
aVend
p745
aVended
p746
aVends
p747
aVenergy
p748
aVengine
p749
aVengland
p750
aVenglish
p751
aVenhanced
p752
aVenjoy
p753
aVenjoyed
p754
aVensure
p755
aVenter
p756
aVentertainment
p757
aVentire
p758
aVentirely
p759
aVentry
p760
aVenvironment
p761
aVepic
p762
aVequal
p763
aVequipment
p764
aVescape
p765
aVespecially
p766
aVespn
p767
aVessential
p768
aVet
p769
aVeurope
p770
aVevening
p771
aVevenly
p772
aVevent
p773
aVevents
p774
aVeventually
p775
aVeveryday
p776
aVevidence
p777
aVexactly
p778
aVexample
p779
aVexcellent
p780
aVexcess
p781
aVexcited
p782
aVexciting
p783
aVexercise
p784
aVexercises
p785
aVexpect
p786
aVexpected
p787
aVexpensive
p788
aVexperience
p789
aVexperiment
p790
aVexpert
p791
aVexperts
p792
aVexplain
p793
aVexplains
p794
aVextra
p795
aVextract
p796
aVextreme
p797
aVextremely
p798
aVeye
p799
aVeyes
p800
aVfabulous
p801
aVface
p802
aVfacebook
p803
aVfact
p804
aVfactor
p805
aVfactors
p806
aVfacts
p807
aVfail
p808
aVfair
p809
aVfall
p810
aVfalse
p811
aVfamily
p812
aVfamous
p813
aVfan
p814
aVfancy
p815
aVfans
p816
aVfantastic
p817
aVfar
p818
aVfarm
p819
aVfashion
p820
aVfast
p821
aVfaster
p822
aVfat
p823
aVfather
p824
aVfats
p825
aVfatty
p826
aVfavorite
p827
aVfavorites
p828
aVfavourite
p829
aVfda
p830
aVfear
p831
aVfeature
p832
aVfeatured
p833
aVfeatures
p834
aVfeaturing
p835
aVfeb
p836
aVfebruary
p837
aVfederal
p838
aVfeed
p839
aVfeel
p840
aVfeeling
p841
aVfeels
p842
aVfeet
p843
aVfelt
p844
aVfemale
p845
aVfiber
p846
aVfield
p847
aVfight
p848
aVfighting
p849
aVfigure
p850
aVfiled
p851
aVfilled
p852
aVfilling
p853
aVfilm
p854
aVfinal
p855
aVfinally
p856
aVfinancial
p857
aVfinding
p858
aVfine
p859
aVfinely
p860
aVfinger
p861
aVfingers
p862
aVfinish
p863
aVfinished
p864
aVfirm
p865
aVfish
p866
aVfit
p867
aVfitness
p868
aVfitted
p869
aVfix
p870
aVflakes
p871
aVflash
p872
aVflashvars
p873
aVflat
p874
aVflavor
p875
aVflavored
p876
aVflavors
p877
aVflavour
p878
aVflickr
p879
aVflight
p880
aVflip
p881
aVfloat
p882
aVfloor
p883
aVflorida
p884
aVflour
p885
aVflour1
p886
aVflu
p887
aVfluffy
p888
aVfocus
p889
aVfoil
p890
aVfold
p891
aVfollow
p892
aVfollowed
p893
aVfollowing
p894
aVfont
p895
aVfood
p896
aVfoods
p897
aVfoot
p898
aVfootball
p899
aVforce
p900
aVforever
p901
aVforget
p902
aVfork
p903
aVform
p904
aVforms
p905
aVforward
p906
aVfox
p907
aVfrance
p908
aVfrancisco
p909
aVfree
p910
aVfreeze
p911
aVfreezer
p912
aVfrench
p913
aVfrequently
p914
aVfresh
p915
aVfreshly
p916
aVfriday
p917
aVfridge
p918
aVfried
p919
aVfriend
p920
aVfriendly
p921
aVfriends
p922
aVfries
p923
aVfrosting
p924
aVfrozen
p925
aVfruit
p926
aVfruits
p927
aVfry
p928
aVfrying
p929
aVfudge
p930
aVfuel
p931
aVfully
p932
aVfun
p933
aVfunction
p934
aVfunny
p935
aVfuture
p936
aVgadgets
p937
aVgain
p938
aVgallery
p939
aVgame
p940
aVgames
p941
aVganache
p942
aVgarden
p943
aVgarlic
p944
aVgarnish
p945
aVgas
p946
aVgave
p947
aVgeneral
p948
aVgenerally
p949
aVgently
p950
aVgerman
p951
aVgermany
p952
aVgets
p953
aVgetting
p954
aVgetty
p955
aVgiant
p956
aVgift
p957
aVginger
p958
aVgirl
p959
aVgirls
p960
aVgiven
p961
aVgives
p962
aVgiving
p963
aVglass
p964
aVglasses
p965
aVglaze
p966
aVglobal
p967
aVgluten
p968
aVgoal
p969
aVgoals
p970
aVgoat
p971
aVgod
p972
aVgoes
p973
aVgoing
p974
aVgold
p975
aVgolden
p976
aVgolf
p977
aVgone
p978
aVgood
p979
aVgoodness
p980
aVgooey
p981
aVgoogle
p982
aVgorgeous
p983
aVgot
p984
aVgourmet
p985
aVgovernment
p986
aVgrab
p987
aVgrade
p988
aVgradually
p989
aVgraham
p990
aVgrain
p991
aVgrams
p992
aVgrand
p993
aVgranola
p994
aVgranulated
p995
aVgrated
p996
aVgravy
p997
aVgrease
p998
aVgreased
p999
aVgreat
p1000
aVgreater
p1001
aVgreatest
p1002
aVgreek
p1003
aVgreen
p1004
aVgreens
p1005
aVgrill
p1006
aVgrilled
p1007
aVgrocery
p1008
aVground
p1009
aVgroup
p1010
aVgroups
p1011
aVgrow
p1012
aVgrowing
p1013
aVgrown
p1014
aVgrowth
p1015
aVguess
p1016
aVguests
p1017
aVguide
p1018
aVguy
p1019
aVguys
p1020
aVgym
p1021
aVhabit
p1022
aVhabits
p1023
aVhair
p1024
aVhalf
p1025
aVhalloween
p1026
aVham
p1027
aVhand
p1028
aVhandful
p1029
aVhandle
p1030
aVhands
p1031
aVhappen
p1032
aVhappened
p1033
aVhappens
p1034
aVhappiness
p1035
aVhappy
p1036
aVhard
p1037
aVhate
p1038
aVhaven
p1039
aVhaving
p1040
aVhead
p1041
aVheader
p1042
aVheadlines
p1043
aVhealing
p1044
aVhealth
p1045
aVhealthier
p1046
aVhealthy
p1047
aVhear
p1048
aVheard
p1049
aVheart
p1050
aVheat
p1051
aVheated
p1052
aVheavy
p1053
aVheels
p1054
aVheight
p1055
aVheld
p1056
aVhelp
p1057
aVhelpful
p1058
aVhelping
p1059
aVhelps
p1060
aVherb
p1061
aVherbs
p1062
aVhey
p1063
aVhi
p1064
aVhidden
p1065
aVhigh
p1066
aVhigher
p1067
aVhighest
p1068
aVhighly
p1069
aVhistory
p1070
aVhit
p1071
aVhits
p1072
aVhockey
p1073
aVhold
p1074
aVholding
p1075
aVholds
p1076
aVhole
p1077
aVholiday
p1078
aVhome
p1079
aVhomemade
p1080
aVhoney
p1081
aVhope
p1082
aVhospital
p1083
aVhost
p1084
aVhot
p1085
aVhotel
p1086
aVhour
p1087
aVhours
p1088
aVhouse
p1089
aVhover
p1090
aVhref
p1091
aVhtml
p1092
aVhttp
p1093
aVhuge
p1094
aVhuman
p1095
aVhumans
p1096
aVhumor
p1097
aVhundreds
p1098
aVhungry
p1099
aVhusband
p1100
aVice
p1101
aVicing
p1102
aVid
p1103
aVidea
p1104
aVideal
p1105
aVideas
p1106
aVillness
p1107
aVillustrated
p1108
aVimage
p1109
aVimages
p1110
aVimagine
p1111
aVimg
p1112
aVimmediately
p1113
aVimmune
p1114
aVimpact
p1115
aVimportant
p1116
aVimpossible
p1117
aVimpressive
p1118
aVimprove
p1119
aVinch
p1120
aVinches
p1121
aVinclude
p1122
aVincluded
p1123
aVincludes
p1124
aVincluding
p1125
aVincorporated
p1126
aVincrease
p1127
aVincreased
p1128
aVincreases
p1129
aVincredible
p1130
aVincredibly
p1131
aVindex
p1132
aVindia
p1133
aVindian
p1134
aVindie
p1135
aVindividual
p1136
aVindividuals
p1137
aVindustry
p1138
aVinfo
p1139
aVinfographic
p1140
aVinformation
p1141
aVingredient
p1142
aVingredients
p1143
aVinjury
p1144
aVinner
p1145
aVinnovation
p1146
aVinserted
p1147
aVinside
p1148
aVinsidershealth
p1149
aVinspiration
p1150
aVinspired
p1151
aVinstant
p1152
aVinstead
p1153
aVinstitute
p1154
aVinstructions
p1155
aVintake
p1156
aVintense
p1157
aVinterested
p1158
aVinteresting
p1159
aVinternational
p1160
aVinternet
p1161
aVinterview
p1162
aVinvolved
p1163
aVipad
p1164
aViphone
p1165
aViron
p1166
aVisland
p1167
aVisn
p1168
aVissue
p1169
aVissues
p1170
aVitalian
p1171
aVitaly
p1172
aVitem
p1173
aVitems
p1174
aVjack
p1175
aVjacket
p1176
aVjacobs
p1177
aVjam
p1178
aVjames
p1179
aVjan
p1180
aVjanuary
p1181
aVjapan
p1182
aVjapanese
p1183
aVjar
p1184
aVjeans
p1185
aVjelly
p1186
aVjersey
p1187
aVjessica
p1188
aVjob
p1189
aVjobs
p1190
aVjoe
p1191
aVjohn
p1192
aVjoin
p1193
aVjokes
p1194
aVjournal
p1195
aVjoy
p1196
aVjpg
p1197
aVjuice
p1198
aVjuices
p1199
aVjuly
p1200
aVjump
p1201
aVjune
p1202
aVjust
p1203
aVkate
p1204
aVkeeping
p1205
aVkeeps
p1206
aVkept
p1207
aVkey
p1208
aVkick
p1209
aVkid
p1210
aVkids
p1211
aVkill
p1212
aVkind
p1213
aVkinds
p1214
aVking
p1215
aVkitchen
p1216
aVknead
p1217
aVknee
p1218
aVknew
p1219
aVknife
p1220
aVknow
p1221
aVknowledge
p1222
aVknown
p1223
aVknows
p1224
aVkosher
p1225
aVla
p1226
aVlack
p1227
aVladies
p1228
aVlady
p1229
aVland
p1230
aVlanguage
p1231
aVlarge
p1232
aVlarger
p1233
aVlargest
p1234
aVlasagna
p1235
aVlate
p1236
aVlater
p1237
aVlatest
p1238
aVlaunch
p1239
aVlaw
p1240
aVlay
p1241
aVlayer
p1242
aVlayers
p1243
aVlb
p1244
aVlead
p1245
aVleading
p1246
aVleaf
p1247
aVleague
p1248
aVlean
p1249
aVlearn
p1250
aVlearned
p1251
aVlearning
p1252
aVleather
p1253
aVleave
p1254
aVleaves
p1255
aVleaving
p1256
aVled
p1257
aVleft
p1258
aVleftover
p1259
aVleg
p1260
aVlegal
p1261
aVlegs
p1262
aVlemon
p1263
aVlength
p1264
aVlet
p1265
aVlets
p1266
aVlettuce
p1267
aVlevel
p1268
aVlevels
p1269
aVlid
p1270
aVlife
p1271
aVlifestyle
p1272
aVlift
p1273
aVlight
p1274
aVlightly
p1275
aVlike
p1276
aVliked
p1277
aVlikely
p1278
aVlikes
p1279
aVlime
p1280
aVlimited
p1281
aVline
p1282
aVlined
p1283
aVlines
p1284
aVlink
p1285
aVlinked
p1286
aVlinks
p1287
aVliquid
p1288
aVlist
p1289
aVlists
p1290
aVlittle
p1291
aVlive
p1292
aVliver
p1293
aVlives
p1294
aVliving
p1295
aVll
p1296
aVloaded
p1297
aVloaf
p1298
aVlocal
p1299
aVlocation
p1300
aVlog
p1301
aVlondon
p1302
aVlong
p1303
aVlonger
p1304
aVlook
p1305
aVlooked
p1306
aVlooking
p1307
aVlooks
p1308
aVlos
p1309
aVlose
p1310
aVlosing
p1311
aVloss
p1312
aVlost
p1313
aVlot
p1314
aVlots
p1315
aVlove
p1316
aVloved
p1317
aVlovely
p1318
aVloves
p1319
aVlow
p1320
aVlower
p1321
aVluck
p1322
aVlucky
p1323
aVlunch
p1324
aVmac
p1325
aVmacaroni
p1326
aVmachine
p1327
aVmachines
p1328
aVmagazine
p1329
aVmagic
p1330
aVmail
p1331
aVmain
p1332
aVmaintain
p1333
aVmajor
p1334
aVmake
p1335
aVmaker
p1336
aVmakes
p1337
aVmakeup
p1338
aVmaking
p1339
aVmale
p1340
aVman
p1341
aVmanage
p1342
aVmanagement
p1343
aVmaple
p1344
aVmaps
p1345
aVmarch
p1346
aVmargin
p1347
aVmarijuana
p1348
aVmark
p1349
aVmarket
p1350
aVmarketing
p1351
aVmarshmallow
p1352
aVmarshmallows
p1353
aVmartha
p1354
aVmashed
p1355
aVmass
p1356
aVmatch
p1357
aVmaterial
p1358
aVmaterials
p1359
aVmatter
p1360
aVmaybe
p1361
aVmayonnaise
p1362
aVmeal
p1363
aVmeals
p1364
aVmean
p1365
aVmeans
p1366
aVmeant
p1367
aVmeasure
p1368
aVmeasuring
p1369
aVmeat
p1370
aVmeatballs
p1371
aVmeats
p1372
aVmedal
p1373
aVmedia
p1374
aVmedical
p1375
aVmedicine
p1376
aVmedium
p1377
aVmeet
p1378
aVmeeting
p1379
aVmelt
p1380
aVmelted
p1381
aVmember
p1382
aVmembers
p1383
aVmemory
p1384
aVmen
p1385
aVmental
p1386
aVmention
p1387
aVmentioned
p1388
aVmenu
p1389
aVmess
p1390
aVmessage
p1391
aVmet
p1392
aVmetal
p1393
aVmethod
p1394
aVmethods
p1395
aVmexican
p1396
aVmg
p1397
aVmichael
p1398
aVmicrosoft
p1399
aVmicrowave
p1400
aVmid
p1401
aVmiddle
p1402
aVmike
p1403
aVmiles
p1404
aVmilitary
p1405
aVmilk
p1406
aVmillion
p1407
aVmin
p1408
aVminced
p1409
aVmind
p1410
aVmini
p1411
aVmins
p1412
aVmint
p1413
aVminute
p1414
aVminutes
p1415
aVmiss
p1416
aVmissing
p1417
aVmix
p1418
aVmixed
p1419
aVmixer
p1420
aVmixing
p1421
aVmixture
p1422
aVmjs538
p1423
aVml
p1424
aVmobile
p1425
aVmodel
p1426
aVmodels
p1427
aVmodern
p1428
aVmoist
p1429
aVmom
p1430
aVmoment
p1431
aVmoments
p1432
aVmonday
p1433
aVmoney
p1434
aVmonth
p1435
aVmonths
p1436
aVmood
p1437
aVmorning
p1438
aVmother
p1439
aVmotion
p1440
aVmouse
p1441
aVmousse
p1442
aVmouth
p1443
aVmoved
p1444
aVmovement
p1445
aVmovie
p1446
aVmovies
p1447
aVmoving
p1448
aVmozzarella
p1449
aVmr
p1450
aVmuffin
p1451
aVmuffins
p1452
aVmultiple
p1453
aVmuscle
p1454
aVmuscles
p1455
aVmushroom
p1456
aVmushrooms
p1457
aVmusic
p1458
aVmustard
p1459
aVnail
p1460
aVnamed
p1461
aVnames
p1462
aVnanny
p1463
aVnation
p1464
aVnational
p1465
aVnatural
p1466
aVnaturally
p1467
aVnature
p1468
aVnav
p1469
aVnba
p1470
aVnear
p1471
aVnearly
p1472
aVnecessary
p1473
aVneck
p1474
aVneed
p1475
aVneeded
p1476
aVneeds
p1477
aVnegative
p1478
aVnet
p1479
aVnetwork
p1480
aVnew
p1481
aVnews
p1482
aVnfl
p1483
aVnhl
p1484
aVnice
p1485
aVnight
p1486
aVnon
p1487
aVnoodles
p1488
aVnormal
p1489
aVnormally
p1490
aVnorth
p1491
aVnose
p1492
aVnote
p1493
aVnotes
p1494
aVnotice
p1495
aVnoticed
p1496
aVnovember
p1497
aVnsfw
p1498
aVnull
p1499
aVnumber
p1500
aVnumbers
p1501
aVnutella
p1502
aVnutmeg
p1503
aVnutrients
p1504
aVnutrition
p1505
aVnutritional
p1506
aVnuts
p1507
aVoatmeal
p1508
aVoats
p1509
aVobama
p1510
aVobesity
p1511
aVobviously
p1512
aVoccasionally
p1513
aVoctober
p1514
aVoffer
p1515
aVoffers
p1516
aVoffice
p1517
aVofficial
p1518
aVoh
p1519
aVoil
p1520
aVoils
p1521
aVok
p1522
aVokay
p1523
aVold
p1524
aVolder
p1525
aVolive
p1526
aVolympic
p1527
aVolympics
p1528
aVomega
p1529
aVones
p1530
aVonion
p1531
aVonions
p1532
aVonline
p1533
aVopen
p1534
aVopened
p1535
aVopening
p1536
aVopinion
p1537
aVopportunity
p1538
aVoption
p1539
aVoptional
p1540
aVoptions
p1541
aVorange
p1542
aVorder
p1543
aVoregano
p1544
aVoreo
p1545
aVorg
p1546
aVorganic
p1547
aVoriginal
p1548
aVoriginally
p1549
aVounce
p1550
aVounces
p1551
aVoutfit
p1552
aVoutside
p1553
aVoven
p1554
aVoverall
p1555
aVovernight
p1556
aVowner
p1557
aVoz
p1558
aVpack
p1559
aVpackage
p1560
aVpacked
p1561
aVpadding
p1562
aVpage
p1563
aVpages
p1564
aVpaid
p1565
aVpain
p1566
aVpaint
p1567
aVpair
p1568
aVpan
p1569
aVpancake
p1570
aVpancakes
p1571
aVpans
p1572
aVpants
p1573
aVpaper
p1574
aVparams
p1575
aVparchment
p1576
aVparents
p1577
aVparis
p1578
aVpark
p1579
aVparmesan
p1580
aVparsley
p1581
aVparticular
p1582
aVparticularly
p1583
aVpartner
p1584
aVparts
p1585
aVparty
p1586
aVpass
p1587
aVpassword
p1588
aVpast
p1589
aVpasta
p1590
aVpaste
p1591
aVpastry
p1592
aVpat
p1593
aVpatient
p1594
aVpatients
p1595
aVpattern
p1596
aVpaul
p1597
aVpay
p1598
aVpdf
p1599
aVpeaches
p1600
aVpeanut
p1601
aVpeanuts
p1602
aVpeas
p1603
aVpecan
p1604
aVpecans
p1605
aVpeel
p1606
aVpeeled
p1607
aVpeople
p1608
aVpepper
p1609
aVpeppermint
p1610
aVpeppers
p1611
aVpercent
p1612
aVperfect
p1613
aVperfectly
p1614
aVperform
p1615
aVperformance
p1616
aVperiod
p1617
aVperson
p1618
aVpersonal
p1619
aVpesto
p1620
aVpeter
p1621
aVphone
p1622
aVphones
p1623
aVphoto
p1624
aVphotograph
p1625
aVphotography
p1626
aVphotos
p1627
aVphysical
p1628
aVpick
p1629
aVpicked
p1630
aVpics
p1631
aVpicture
p1632
aVpictures
p1633
aVpie
p1634
aVpiece
p1635
aVpieces
p1636
aVpies
p1637
aVpin
p1638
aVpinch
p1639
aVpineapple
p1640
aVpink
p1641
aVpizza
p1642
aVplace
p1643
aVplaced
p1644
aVplaces
p1645
aVplain
p1646
aVplan
p1647
aVplanning
p1648
aVplans
p1649
aVplant
p1650
aVplastic
p1651
aVplate
p1652
aVplay
p1653
aVplayed
p1654
aVplayer
p1655
aVplayers
p1656
aVplaying
p1657
aVplays
p1658
aVplenty
p1659
aVplus
p1660
aVpm
p1661
aVpng
p1662
aVpoint
p1663
aVpoints
p1664
aVpolice
p1665
aVpolicy
p1666
aVpoor
p1667
aVpop
p1668
aVpopcorn
p1669
aVpops
p1670
aVpopular
p1671
aVpopulation
p1672
aVpork
p1673
aVportion
p1674
aVposition
p1675
aVpositive
p1676
aVpossible
p1677
aVpossibly
p1678
aVpost
p1679
aVposted
p1680
aVposts
p1681
aVpot
p1682
aVpotato
p1683
aVpotatoes
p1684
aVpotential
p1685
aVpound
p1686
aVpounds
p1687
aVpour
p1688
aVpowder
p1689
aVpowder1
p1690
aVpowdered
p1691
aVpower
p1692
aVpowered
p1693
aVpowerful
p1694
aVpractice
p1695
aVpre
p1696
aVprefer
p1697
aVpreheat
p1698
aVprep
p1699
aVpreparation
p1700
aVprepare
p1701
aVprepared
p1702
aVprescription
p1703
aVpresent
p1704
aVpresident
p1705
aVpress
p1706
aVpressure
p1707
aVpretty
p1708
aVpretzel
p1709
aVpretzels
p1710
aVprevent
p1711
aVprevention
p1712
aVprevious
p1713
aVpreviously
p1714
aVprice
p1715
aVprint
p1716
aVprivacy
p1717
aVprivate
p1718
aVpro
p1719
aVprobably
p1720
aVproblem
p1721
aVproblems
p1722
aVprocess
p1723
aVprocessed
p1724
aVprocessor
p1725
aVproduce
p1726
aVproduced
p1727
aVproduct
p1728
aVproduction
p1729
aVproducts
p1730
aVprofessional
p1731
aVprofessor
p1732
aVprofile
p1733
aVprogram
p1734
aVprograms
p1735
aVproject
p1736
aVprojects
p1737
aVpromise
p1738
aVproof
p1739
aVproper
p1740
aVproperly
p1741
aVproperties
p1742
aVprotect
p1743
aVprotein
p1744
aVprovide
p1745
aVprovided
p1746
aVprovides
p1747
aVpublic
p1748
aVpublished
p1749
aVpudding
p1750
aVpuff
p1751
aVpull
p1752
aVpulled
p1753
aVpulse
p1754
aVpumpkin
p1755
aVpurchase
p1756
aVpure
p1757
aVpuree
p1758
aVpurpose
p1759
aVpush
p1760
aVputting
p1761
aVquality
p1762
aVquarter
p1763
aVqueen
p1764
aVqueries
p1765
aVquestion
p1766
aVquestions
p1767
aVquick
p1768
aVquickly
p1769
aVquinoa
p1770
aVquite
p1771
aVrace
p1772
aVrack
p1773
aVradio
p1774
aVraise
p1775
aVran
p1776
aVrandom
p1777
aVrange
p1778
aVraspberry
p1779
aVrate
p1780
aVraw
p1781
aVreach
p1782
aVread
p1783
aVreaders
p1784
aVreading
p1785
aVready
p1786
aVreal
p1787
aVreality
p1788
aVrealize
p1789
aVreally
p1790
aVreason
p1791
aVreasons
p1792
aVreceive
p1793
aVreceived
p1794
aVrecent
p1795
aVrecently
p1796
aVrecipe
p1797
aVrecipes
p1798
aVrecommend
p1799
aVrecommended
p1800
aVrecord
p1801
aVrecords
p1802
aVred
p1803
aVreduce
p1804
aVreduced
p1805
aVrefrigerate
p1806
aVrefrigerator
p1807
aVregarding
p1808
aVregular
p1809
aVregularly
p1810
aVrelated
p1811
aVrelationship
p1812
aVrelatively
p1813
aVrelax
p1814
aVrelease
p1815
aVreleased
p1816
aVrelief
p1817
aVremain
p1818
aVremaining
p1819
aVremedies
p1820
aVremember
p1821
aVremove
p1822
aVremoved
p1823
aVrepeat
p1824
aVreplace
p1825
aVreport
p1826
aVreported
p1827
aVreports
p1828
aVrequire
p1829
aVrequired
p1830
aVrequires
p1831
aVresearch
p1832
aVresearchers
p1833
aVreserved
p1834
aVresponse
p1835
aVresponsible
p1836
aVrest
p1837
aVrestaurant
p1838
aVrestaurants
p1839
aVresult
p1840
aVresults
p1841
aVreturn
p1842
aVreuters
p1843
aVreview
p1844
aVreviews
p1845
aVribs
p1846
aVrice
p1847
aVrich
p1848
aVricotta
p1849
aVrid
p1850
aVright
p1851
aVrights
p1852
aVring
p1853
aVrings
p1854
aVrinse
p1855
aVripe
p1856
aVrise
p1857
aVrisk
p1858
aVroad
p1859
aVroast
p1860
aVroasted
p1861
aVrock
p1862
aVrole
p1863
aVroll
p1864
aVrolled
p1865
aVrolling
p1866
aVrolls
p1867
aVroom
p1868
aVroot
p1869
aVrose
p1870
aVrosemary
p1871
aVroughly
p1872
aVround
p1873
aVroutine
p1874
aVrow
p1875
aVrsquo
p1876
aVrss
p1877
aVrub
p1878
aVrule
p1879
aVrules
p1880
aVrum
p1881
aVrun
p1882
aVrunning
p1883
aVruns
p1884
aVryan
p1885
aVsafe
p1886
aVsafety
p1887
aVsaid
p1888
aVsalad
p1889
aVsalads
p1890
aVsale
p1891
aVsalmon
p1892
aVsalsa
p1893
aVsalt
p1894
aVsalt1
p1895
aVsalted
p1896
aVsalty
p1897
aVsamsung
p1898
aVsan
p1899
aVsandwich
p1900
aVsandwiches
p1901
aVsarah
p1902
aVsaturated
p1903
aVsaturday
p1904
aVsauce
p1905
aVsaucepan
p1906
aVsausage
p1907
aVsaute
p1908
aVsave
p1909
aVsaving
p1910
aVsavory
p1911
aVsaw
p1912
aVsay
p1913
aVsaying
p1914
aVsays
p1915
aVscale
p1916
aVschedule
p1917
aVschool
p1918
aVscience
p1919
aVscientific
p1920
aVscientists
p1921
aVscones
p1922
aVscoop
p1923
aVscore
p1924
aVscrape
p1925
aVscreen
p1926
aVsea
p1927
aVseafood
p1928
aVsearch
p1929
aVseason
p1930
aVseasoning
p1931
aVsecond
p1932
aVseconds
p1933
aVsecret
p1934
aVsection
p1935
aVsecurity
p1936
aVseed
p1937
aVseeds
p1938
aVseeing
p1939
aVseen
p1940
aVselect
p1941
aVself
p1942
aVsell
p1943
aVsemi
p1944
aVsend
p1945
aVsense
p1946
aVsent
p1947
aVseparate
p1948
aVseptember
p1949
aVseries
p1950
aVseriously
p1951
aVserve
p1952
aVserved
p1953
aVserves
p1954
aVservice
p1955
aVservices
p1956
aVserving
p1957
aVservings
p1958
aVsesame
p1959
aVset
p1960
aVsets
p1961
aVsetting
p1962
aVseven
p1963
aVsex
p1964
aVsexual
p1965
aVsexy
p1966
aVshake
p1967
aVshape
p1968
aVshaped
p1969
aVshare
p1970
aVshared
p1971
aVsharing
p1972
aVsharp
p1973
aVsheet
p1974
aVsheets
p1975
aVshell
p1976
aVshirt
p1977
aVshoe
p1978
aVshoes
p1979
aVshop
p1980
aVshopping
p1981
aVshort
p1982
aVshortening
p1983
aVshot
p1984
aVshots
p1985
aVshoulder
p1986
aVshouldn
p1987
aVshowed
p1988
aVshowing
p1989
aVshown
p1990
aVshows
p1991
aVshredded
p1992
aVshrimp
p1993
aVsi
p1994
aVsick
p1995
aVsides
p1996
aVsift
p1997
aVsign
p1998
aVsignificant
p1999
aVsigns
p2000
aVsilver
p2001
aVsimilar
p2002
aVsimmer
p2003
aVsimple
p2004
aVsimply
p2005
aVsingle
p2006
aVsister
p2007
aVsit
p2008
aVsite
p2009
aVsites
p2010
aVsitting
p2011
aVsituation
p2012
aVsize
p2013
aVsized
p2014
aVskillet
p2015
aVskills
p2016
aVskin
p2017
aVskip
p2018
aVsleep
p2019
aVsleeping
p2020
aVslice
p2021
aVsliced
p2022
aVslices
p2023
aVslide
p2024
aVslightly
p2025
aVslow
p2026
aVslowly
p2027
aVsmall
p2028
aVsmaller
p2029
aVsmart
p2030
aVsmell
p2031
aVsmile
p2032
aVsmith
p2033
aVsmoke
p2034
aVsmoked
p2035
aVsmoking
p2036
aVsmooth
p2037
aVsmoothie
p2038
aVsnack
p2039
aVsnacks
p2040
aVsnow
p2041
aVsoak
p2042
aVsoccer
p2043
aVsocial
p2044
aVsociety
p2045
aVsoda
p2046
aVsodium
p2047
aVsoft
p2048
aVsoftened
p2049
aVsoftware
p2050
aVsolar
p2051
aVsold
p2052
aVsolid
p2053
aVsolution
p2054
aVson
p2055
aVsong
p2056
aVsoon
p2057
aVsorry
p2058
aVsort
p2059
aVsound
p2060
aVsounds
p2061
aVsoup
p2062
aVsour
p2063
aVsource
p2064
aVsources
p2065
aVsouth
p2066
aVsouthern
p2067
aVsoy
p2068
aVspace
p2069
aVspaghetti
p2070
aVspan
p2071
aVspatula
p2072
aVspecial
p2073
aVspecific
p2074
aVspeed
p2075
aVspend
p2076
aVspending
p2077
aVspent
p2078
aVspice
p2079
aVspices
p2080
aVspicy
p2081
aVspinach
p2082
aVsplit
p2083
aVspoon
p2084
aVsport
p2085
aVsports
p2086
aVspot
p2087
aVspray
p2088
aVspread
p2089
aVspring
p2090
aVsprinkle
p2091
aVsquare
p2092
aVsquares
p2093
aVsquash
p2094
aVsqueeze
p2095
aVsrc
p2096
aVst
p2097
aVstadium
p2098
aVstaff
p2099
aVstage
p2100
aVstand
p2101
aVstandard
p2102
aVstanding
p2103
aVstar
p2104
aVstars
p2105
aVstart
p2106
aVstarted
p2107
aVstarting
p2108
aVstarts
p2109
aVstate
p2110
aVstatement
p2111
aVstates
p2112
aVstatic
p2113
aVstay
p2114
aVsteak
p2115
aVstem
p2116
aVstep
p2117
aVsteps
p2118
aVsteve
p2119
aVstewart
p2120
aVstick
p2121
aVsticks
p2122
aVsticky
p2123
aVstir
p2124
aVstirring
p2125
aVstock
p2126
aVstomach
p2127
aVstone
p2128
aVstop
p2129
aVstorage
p2130
aVstore
p2131
aVstored
p2132
aVstores
p2133
aVstories
p2134
aVstory
p2135
aVstove
p2136
aVstraight
p2137
aVstrain
p2138
aVstrawberries
p2139
aVstrawberry
p2140
aVstreet
p2141
aVstrength
p2142
aVstress
p2143
aVstretch
p2144
aVstrips
p2145
aVstrong
p2146
aVstudent
p2147
aVstudents
p2148
aVstudies
p2149
aVstudy
p2150
aVstuff
p2151
aVstuffed
p2152
aVstyle
p2153
aVsub
p2154
aVsubscribe
p2155
aVsubstitute
p2156
aVsuccess
p2157
aVsuccessful
p2158
aVsugar
p2159
aVsugar1
p2160
aVsugars
p2161
aVsuggest
p2162
aVsuggested
p2163
aVsuggests
p2164
aVsuit
p2165
aVsummer
p2166
aVsun
p2167
aVsunday
p2168
aVsuper
p2169
aVsupplements
p2170
aVsupply
p2171
aVsupport
p2172
aVsure
p2173
aVsurface
p2174
aVsurgery
p2175
aVsurprise
p2176
aVsurprised
p2177
aVsushi
p2178
aVsweet
p2179
aVsweetened
p2180
aVswf
p2181
aVswim
p2182
aVswimming
p2183
aVswimsuit
p2184
aVsymptoms
p2185
aVsyrup
p2186
aVsystems
p2187
aVtable
p2188
aVtablespoon
p2189
aVtablespoons
p2190
aVtablet
p2191
aVtaco
p2192
aVtacos
p2193
aVtagged
p2194
aVtags
p2195
aVtaken
p2196
aVtakes
p2197
aVtaking
p2198
aVtalk
p2199
aVtalking
p2200
aVtap
p2201
aVtape
p2202
aVtarget
p2203
aVtart
p2204
aVtask
p2205
aVtaste
p2206
aVtasted
p2207
aVtastes
p2208
aVtasty
p2209
aVtbs
p2210
aVtbsp
p2211
aVtea
p2212
aVteam
p2213
aVteams
p2214
aVteaspoon
p2215
aVteaspoons
p2216
aVtech
p2217
aVtechnique
p2218
aVtechniques
p2219
aVtechnologies
p2220
aVtechnology
p2221
aVteeth
p2222
aVtelevision
p2223
aVtell
p2224
aVtells
p2225
aVtemperature
p2226
aVtend
p2227
aVtender
p2228
aVtennis
p2229
aVterm
p2230
aVterminal01
p2231
aVterms
p2232
aVtest
p2233
aVtested
p2234
aVtesting
p2235
aVtests
p2236
aVtexas
p2237
aVtext
p2238
aVtexture
p2239
aVthai
p2240
aVthank
p2241
aVthanks
p2242
aVthanksgiving
p2243
aVtherapy
p2244
aVthing
p2245
aVthings
p2246
aVthink
p2247
aVthinking
p2248
aVthinly
p2249
aVthoroughly
p2250
aVthought
p2251
aVthoughts
p2252
aVthousands
p2253
aVthrow
p2254
aVthursday
p2255
aVthyme
p2256
aVtie
p2257
aVtight
p2258
aVtime
p2259
aVtimes
p2260
aVtin
p2261
aVtiny
p2262
aVtip
p2263
aVtips
p2264
aVtired
p2265
aVtitle
p2266
aVtoast
p2267
aVtoasted
p2268
aVtoday
p2269
aVtofu
p2270
aVtold
p2271
aVtom
p2272
aVtomato
p2273
aVtomatoes
p2274
aVtonight
p2275
aVtook
p2276
aVtool
p2277
aVtools
p2278
aVtoothpick
p2279
aVtopped
p2280
aVtopping
p2281
aVtoppings
p2282
aVtops
p2283
aVtortilla
p2284
aVtortillas
p2285
aVtoss
p2286
aVtotal
p2287
aVtotally
p2288
aVtouch
p2289
aVtough
p2290
aVtowel
p2291
aVtown
p2292
aVtrack
p2293
aVtracking
p2294
aVtraditional
p2295
aVtraffic
p2296
aVtrain
p2297
aVtraining
p2298
aVtransfer
p2299
aVtravel
p2300
aVtray
p2301
aVtreat
p2302
aVtreatment
p2303
aVtreatments
p2304
aVtreats
p2305
aVtree
p2306
aVtrend
p2307
aVtrends
p2308
aVtrial
p2309
aVtrick
p2310
aVtried
p2311
aVtrip
p2312
aVtrouble
p2313
aVtrue
p2314
aVtruffles
p2315
aVtruly
p2316
aVtrust
p2317
aVtruth
p2318
aVtry
p2319
aVtrying
p2320
aVtsp
p2321
aVtuesday
p2322
aVturkey
p2323
aVturn
p2324
aVturned
p2325
aVturning
p2326
aVturns
p2327
aVtv
p2328
aVtwice
p2329
aVtwist
p2330
aVtwitter
p2331
aVtype
p2332
aVtypes
p2333
aVtypical
p2334
aVtypically
p2335
aVuk
p2336
aVultimate
p2337
aVunderstand
p2338
aVunfortunately
p2339
aVunique
p2340
aVunited
p2341
aVuniversity
p2342
aVunless
p2343
aVunlike
p2344
aVunsalted
p2345
aVunsweetened
p2346
aVupcoming
p2347
aVupdate
p2348
aVupdated
p2349
aVupdates
p2350
aVupper
p2351
aVups
p2352
aVuri
p2353
aVurl
p2354
aVusa
p2355
aVuse
p2356
aVused
p2357
aVuseful
p2358
aVuser
p2359
aVusername
p2360
aVusers
p2361
aVuses
p2362
aVusing
p2363
aVusual
p2364
aVusually
p2365
aVvalue
p2366
aVvanilla
p2367
aVvar
p2368
aVvariety
p2369
aVvarious
p2370
aVve
p2371
aVvegan
p2372
aVvegetable
p2373
aVvegetables
p2374
aVvegetarian
p2375
aVveggie
p2376
aVveggies
p2377
aVvehicle
p2378
aVversion
p2379
aVvideo
p2380
aVvideos
p2381
aVview
p2382
aVviews
p2383
aVvinegar
p2384
aVvintage
p2385
aVviral
p2386
aVvirgin
p2387
aVvision
p2388
aVvisit
p2389
aVvitamin
p2390
aVvitamins
p2391
aVvogue
p2392
aVvoice
p2393
aVvs
p2394
aVwait
p2395
aVwaiting
p2396
aVwake
p2397
aVwalk
p2398
aVwalking
p2399
aVwall
p2400
aVwalnuts
p2401
aVwant
p2402
aVwanted
p2403
aVwants
p2404
aVwar
p2405
aVwarm
p2406
aVwash
p2407
aVwashington
p2408
aVwasn
p2409
aVwaste
p2410
aVwatch
p2411
aVwatching
p2412
aVwater
p2413
aVway
p2414
aVways
p2415
aVwear
p2416
aVwearing
p2417
aVweather
p2418
aVweb
p2419
aVwebsite
p2420
aVwedding
p2421
aVwednesday
p2422
aVweek
p2423
aVweekend
p2424
aVweekly
p2425
aVweeks
p2426
aVweight
p2427
aVweird
p2428
aVwelcome
p2429
aVwent
p2430
aVwest
p2431
aVwet
p2432
aVwheat
p2433
aVwhip
p2434
aVwhipped
p2435
aVwhisk
p2436
aVwhite
p2437
aVwhites
p2438
aVwide
p2439
aVwidth
p2440
aVwife
p2441
aVwii
p2442
aVwild
p2443
aVwin
p2444
aVwind
p2445
aVwindow
p2446
aVwindows
p2447
aVwine
p2448
aVwings
p2449
aVwinner
p2450
aVwinning
p2451
aVwinter
p2452
aVwire
p2453
aVwish
p2454
aVwoman
p2455
aVwomen
p2456
aVwon
p2457
aVwonder
p2458
aVwonderful
p2459
aVwood
p2460
aVwooden
p2461
aVword
p2462
aVwords
p2463
aVwork
p2464
aVworked
p2465
aVworking
p2466
aVworkout
p2467
aVworkouts
p2468
aVworks
p2469
aVworld
p2470
aVworry
p2471
aVworse
p2472
aVworst
p2473
aVworth
p2474
aVwouldn
p2475
aVwrap
p2476
aVwrapped
p2477
aVwrite
p2478
aVwriting
p2479
aVwritten
p2480
aVwrong
p2481
aVwrote
p2482
aVwww
p2483
aVyeah
p2484
aVyear
p2485
aVyears
p2486
aVyeast
p2487
aVyellow
p2488
aVyes
p2489
aVyesterday
p2490
aVyield
p2491
aVyoga
p2492
aVyogurt
p2493
aVyolk
p2494
aVyolks
p2495
aVyork
p2496
aVyoung
p2497
aVyoutube
p2498
aVyummy
p2499
aVzest
p2500
aVzucchini
p2501
a.